target datalayout = "e-m:e-p270:32:32-p271:32:32-p272:64:64-i64:64-i128:128-f80:128-n8:16:32:64-S128"
target triple = "x86_64-pc-linux-gnu"

%union.pthread_cond_t = type { %struct.__pthread_cond_s }
%struct.__pthread_cond_s = type { %union.__atomic_wide_counter, %union.__atomic_wide_counter, [2 x i32], [2 x i32], i32, i32, [2 x i32] }
%union.__atomic_wide_counter = type { i64 }
%union.pthread_mutex_t = type { %struct.__pthread_mutex_s }
%struct.__pthread_mutex_s = type { i32, i32, i32, i32, i32, i16, i16, %struct.__pthread_internal_list }
%struct.__pthread_internal_list = type { ptr, ptr }
%struct.slurmd_config = type { ptr, ptr, i32, [4096 x i8], ptr, ptr, ptr, ptr, i16, i16, i16, i16, ptr, i16, i64, i16, i16, i16, i16, i16, i16, i16, i16, i16, i16, i16, i64, i64, i32, i32, i16, ptr, ptr, ptr, i32, ptr, ptr, ptr, ptr, ptr, ptr, ptr, ptr, ptr, ptr, i32, ptr, ptr, i16, i32, i32, %struct.log_options_t, i32, i16, i64, i8, i8, i8, i8, i8, %union.pthread_mutex_t, i16, ptr, %union.pthread_cond_t, ptr, %union.pthread_cond_t, i8, i8, ptr, ptr }
%struct.log_options_t = type { i32, i32, i32, i8, i8, i8, i32 }
%struct.slurm_update_node_msg = type { ptr, i32, ptr, ptr, ptr, ptr, ptr, ptr, ptr, ptr, ptr, ptr, i32, ptr, i32, i32, i32 }

@conf = external global ptr, align 8

; Function Attrs: nounwind uwtable
define dso_local void @stepd_drain_node(ptr noundef %0) #0 {
  %2 = alloca ptr, align 8
  %3 = alloca %struct.slurm_update_node_msg, align 8
  store ptr %0, ptr %2, align 8
  call void @llvm.lifetime.start.p0(i64 128, ptr %3) #12
  call void @slurm_init_update_node_msg(ptr noundef %3)
  %4 = load ptr, ptr @conf, align 8
  %5 = getelementptr inbounds nuw %struct.slurmd_config, ptr %4, i32 0, i32 35
  %6 = load ptr, ptr %5, align 8
  %7 = getelementptr inbounds nuw %struct.slurm_update_node_msg, ptr %3, i32 0, i32 11
  store ptr %6, ptr %7, align 8
  %8 = getelementptr inbounds nuw %struct.slurm_update_node_msg, ptr %3, i32 0, i32 12
  store i32 512, ptr %8, align 8
  %9 = load ptr, ptr %2, align 8
  %10 = getelementptr inbounds nuw %struct.slurm_update_node_msg, ptr %3, i32 0, i32 13
  store ptr %9, ptr %10, align 8
  %11 = call i32 @slurm_update_node(ptr noundef %3)
  call void @llvm.lifetime.end.p0(i64 128, ptr %3) #12
  ret void
}