; Function Attrs: nounwind uwtable
define dso_local void @stepd_drain_node(ptr noundef %0) local_unnamed_addr #0 {
  %2 = alloca %struct.slurm_update_node_msg, align 8
  call void @llvm.lifetime.start.p0(i64 128, ptr nonnull %2) #17
  call void @slurm_init_update_node_msg(ptr noundef nonnull %2) #17
  %3 = load ptr, ptr @conf, align 8
  %4 = getelementptr inbounds nuw i8, ptr %3, i64 4272
  %5 = load ptr, ptr %4, align 8
  %6 = getelementptr inbounds nuw i8, ptr %2, i64 88
  store ptr %5, ptr %6, align 8
  %7 = getelementptr inbounds nuw i8, ptr %2, i64 96
  store i32 512, ptr %7, align 8
  %8 = getelementptr inbounds nuw i8, ptr %2, i64 104
  store ptr %0, ptr %8, align 8
  %9 = call i32 @slurm_update_node(ptr noundef nonnull %2) #17
  call void @llvm.lifetime.end.p0(i64 128, ptr nonnull %2) #17
  ret void
}